target datalayout = "e-m:e-p270:32:32-p271:32:32-p272:64:64-i64:64-i128:128-f80:128-n8:16:32:64-S128"
target triple = "x86_64-pc-linux-gnu"

%"class.llvm::GlobalValue" = type { %"class.llvm::Constant", ptr, i32, i32, ptr }
%"class.llvm::Constant" = type { %"class.llvm::User" }
%"class.llvm::User" = type { %"class.llvm::Value" }
%"class.llvm::Value" = type { i8, i8, i16, i32, ptr, ptr }
%"class.llvm::StringMapImpl" = type { ptr, i32, i32, i32, i32 }
%"class.llvm::SmallVectorBase.66" = type { ptr, i32, i32 }
%"class.llvm::StringMap.82" = type { %"class.llvm::StringMapImpl" }
%"class.std::__cxx11::basic_string" = type { %"struct.std::__cxx11::basic_string<char>::_Alloc_hider", i64, %union.anon }
%"struct.std::__cxx11::basic_string<char>::_Alloc_hider" = type { ptr }
%union.anon = type { i64, [8 x i8] }
%"class.llvm::Module" = type <{ ptr, %"class.llvm::SymbolTableList.4", %"class.llvm::SymbolTableList.13", %"class.llvm::SymbolTableList.20", %"class.llvm::SymbolTableList.29", %"class.llvm::iplist", %"class.std::__cxx11::basic_string", %"class.std::unique_ptr", %"class.llvm::StringMap", %"class.std::unique_ptr.45", %"class.std::unique_ptr.53", %"class.std::__cxx11::basic_string", %"class.std::__cxx11::basic_string", %"class.std::__cxx11::basic_string", %"class.llvm::StringMap.61", %"class.llvm::DataLayout", %"class.llvm::StringMap.82", %"class.llvm::DenseMap", ptr, i8, [7 x i8] }>
%"class.llvm::SymbolTableList.4" = type { %"class.llvm::iplist_impl.5" }
%"class.llvm::iplist_impl.5" = type { %"class.llvm::simple_ilist.8" }
%"class.llvm::simple_ilist.8" = type { %"class.llvm::ilist_sentinel.10" }
%"class.llvm::ilist_sentinel.10" = type { %"class.llvm::ilist_node_impl.11" }
%"class.llvm::ilist_node_impl.11" = type { %"class.llvm::ilist_node_base" }
%"class.llvm::ilist_node_base" = type { %"class.llvm::ilist_detail::node_base_prevnext" }
%"class.llvm::ilist_detail::node_base_prevnext" = type { ptr, ptr }
%"class.llvm::SymbolTableList.13" = type { %"class.llvm::iplist_impl.14" }
%"class.llvm::iplist_impl.14" = type { %"class.llvm::simple_ilist.17" }
%"class.llvm::simple_ilist.17" = type { %"class.llvm::ilist_sentinel.19" }
%"class.llvm::ilist_sentinel.19" = type { %"class.llvm::ilist_node_impl" }
%"class.llvm::ilist_node_impl" = type { %"class.llvm::ilist_node_base" }
%"class.llvm::SymbolTableList.20" = type { %"class.llvm::iplist_impl.21" }
%"class.llvm::iplist_impl.21" = type { %"class.llvm::simple_ilist.24" }
%"class.llvm::simple_ilist.24" = type { %"class.llvm::ilist_sentinel.26" }
%"class.llvm::ilist_sentinel.26" = type { %"class.llvm::ilist_node_impl.27" }
%"class.llvm::ilist_node_impl.27" = type { %"class.llvm::ilist_node_base" }
%"class.llvm::SymbolTableList.29" = type { %"class.llvm::iplist_impl.30" }
%"class.llvm::iplist_impl.30" = type { %"class.llvm::simple_ilist.33" }
%"class.llvm::simple_ilist.33" = type { %"class.llvm::ilist_sentinel.35" }
%"class.llvm::ilist_sentinel.35" = type { %"class.llvm::ilist_node_impl.36" }
%"class.llvm::ilist_node_impl.36" = type { %"class.llvm::ilist_node_base" }
%"class.llvm::iplist" = type { %"class.llvm::iplist_impl.38" }
%"class.llvm::iplist_impl.38" = type { %"class.llvm::simple_ilist.40" }
%"class.llvm::simple_ilist.40" = type { %"class.llvm::ilist_sentinel.42" }
%"class.llvm::ilist_sentinel.42" = type { %"class.llvm::ilist_node_impl.43" }
%"class.llvm::ilist_node_impl.43" = type { %"class.llvm::ilist_node_base" }
%"class.std::unique_ptr" = type { %"struct.std::__uniq_ptr_data" }
%"struct.std::__uniq_ptr_data" = type { %"class.std::__uniq_ptr_impl" }
%"class.std::__uniq_ptr_impl" = type { %"class.std::tuple" }
%"class.std::tuple" = type { %"struct.std::_Tuple_impl" }
%"struct.std::_Tuple_impl" = type { %"struct.std::_Head_base.3" }
%"struct.std::_Head_base.3" = type { ptr }
%"class.llvm::StringMap" = type { %"class.llvm::StringMapImpl" }
%"class.std::unique_ptr.45" = type { %"struct.std::__uniq_ptr_data.46" }
%"struct.std::__uniq_ptr_data.46" = type { %"class.std::__uniq_ptr_impl.47" }
%"class.std::__uniq_ptr_impl.47" = type { %"class.std::tuple.48" }
%"class.std::tuple.48" = type { %"struct.std::_Tuple_impl.49" }
%"struct.std::_Tuple_impl.49" = type { %"struct.std::_Head_base.52" }
%"struct.std::_Head_base.52" = type { ptr }
%"class.std::unique_ptr.53" = type { %"struct.std::__uniq_ptr_data.54" }
%"struct.std::__uniq_ptr_data.54" = type { %"class.std::__uniq_ptr_impl.55" }
%"class.std::__uniq_ptr_impl.55" = type { %"class.std::tuple.56" }
%"class.std::tuple.56" = type { %"struct.std::_Tuple_impl.57" }
%"struct.std::_Tuple_impl.57" = type { %"struct.std::_Head_base.60" }
%"struct.std::_Head_base.60" = type { ptr }
%"class.llvm::StringMap.61" = type { %"class.llvm::StringMapImpl" }
%"class.llvm::DataLayout" = type { i8, i32, i32, i32, %"struct.llvm::MaybeAlign", %"struct.llvm::MaybeAlign", i32, i32, %"class.llvm::SmallVector", %"class.llvm::SmallVector.62", %"class.llvm::SmallVector.68", %"class.llvm::SmallVector.70", %"class.llvm::SmallVector.72", %"class.std::__cxx11::basic_string", %"struct.llvm::Align", %"struct.llvm::Align", ptr, %"class.llvm::SmallVector.77" }
%"struct.llvm::MaybeAlign" = type { %"class.std::optional" }
%"class.std::optional" = type { %"struct.std::_Optional_base" }
%"struct.std::_Optional_base" = type { %"struct.std::_Optional_payload" }
%"struct.std::_Optional_payload" = type { %"struct.std::_Optional_payload_base" }
%"struct.std::_Optional_payload_base" = type { %"union.std::_Optional_payload_base<llvm::Align>::_Storage", i8 }
%"union.std::_Optional_payload_base<llvm::Align>::_Storage" = type { %"struct.std::_Optional_payload_base<llvm::Align>::_Empty_byte" }
%"struct.std::_Optional_payload_base<llvm::Align>::_Empty_byte" = type { i8 }
%"class.llvm::SmallVector" = type { %"class.llvm::SmallVectorImpl", %"struct.llvm::SmallVectorStorage" }
%"class.llvm::SmallVectorImpl" = type { %"class.llvm::SmallVectorTemplateBase" }
%"class.llvm::SmallVectorTemplateBase" = type { %"class.llvm::SmallVectorTemplateCommon" }
%"class.llvm::SmallVectorTemplateCommon" = type { %"class.llvm::SmallVectorBase" }
%"class.llvm::SmallVectorBase" = type { ptr, i64, i64 }
%"struct.llvm::SmallVectorStorage" = type { [8 x i8] }
%"class.llvm::SmallVector.62" = type { %"class.llvm::SmallVectorImpl.63", %"struct.llvm::SmallVectorStorage.67" }
%"class.llvm::SmallVectorImpl.63" = type { %"class.llvm::SmallVectorTemplateBase.64" }
%"class.llvm::SmallVectorTemplateBase.64" = type { %"class.llvm::SmallVectorTemplateCommon.65" }
%"class.llvm::SmallVectorTemplateCommon.65" = type { %"class.llvm::SmallVectorBase.66" }
%"struct.llvm::SmallVectorStorage.67" = type { [48 x i8] }
%"class.llvm::SmallVector.68" = type { %"class.llvm::SmallVectorImpl.63", %"struct.llvm::SmallVectorStorage.69" }
%"struct.llvm::SmallVectorStorage.69" = type { [32 x i8] }
%"class.llvm::SmallVector.70" = type { %"class.llvm::SmallVectorImpl.63", %"struct.llvm::SmallVectorStorage.71" }
%"struct.llvm::SmallVectorStorage.71" = type { [80 x i8] }
%"class.llvm::SmallVector.72" = type { %"class.llvm::SmallVectorImpl.73", %"struct.llvm::SmallVectorStorage.76" }
%"class.llvm::SmallVectorImpl.73" = type { %"class.llvm::SmallVectorTemplateBase.74" }
%"class.llvm::SmallVectorTemplateBase.74" = type { %"class.llvm::SmallVectorTemplateCommon.75" }
%"class.llvm::SmallVectorTemplateCommon.75" = type { %"class.llvm::SmallVectorBase.66" }
%"struct.llvm::SmallVectorStorage.76" = type { [128 x i8] }
%"struct.llvm::Align" = type { i8 }
%"class.llvm::SmallVector.77" = type { %"class.llvm::SmallVectorImpl.78", %"struct.llvm::SmallVectorStorage.81" }
%"class.llvm::SmallVectorImpl.78" = type { %"class.llvm::SmallVectorTemplateBase.79" }
%"class.llvm::SmallVectorTemplateBase.79" = type { %"class.llvm::SmallVectorTemplateCommon.80" }
%"class.llvm::SmallVectorTemplateCommon.80" = type { %"class.llvm::SmallVectorBase.66" }
%"struct.llvm::SmallVectorStorage.81" = type { [32 x i8] }
%"class.llvm::DenseMap" = type <{ ptr, i32, i32, i32, [4 x i8] }>
%"class.llvm::ilist_iterator" = type { ptr }

; Function Attrs: mustprogress nounwind uwtable
define linkonce_odr hidden void @_ZN4llvm12ilist_detail18node_base_prevnextINS_15ilist_node_baseILb0EvEELb0EE7setNextEPS3_(ptr noundef nonnull align 8 dereferenceable(16) %0, ptr noundef %1) #0 comdat align 2 {
  %3 = alloca ptr, align 8
  %4 = alloca ptr, align 8
  store ptr %0, ptr %3, align 8
  store ptr %1, ptr %4, align 8
  %5 = load ptr, ptr %3, align 8
  %6 = load ptr, ptr %4, align 8
  %7 = getelementptr inbounds nuw %"class.llvm::ilist_detail::node_base_prevnext", ptr %5, i32 0, i32 1
  store ptr %6, ptr %7, align 8
  ret void
}

; Function Attrs: mustprogress nounwind uwtable
define linkonce_odr hidden void @_ZN4llvm12ilist_detail18node_base_prevnextINS_15ilist_node_baseILb0EvEELb0EE7setPrevEPS3_(ptr noundef nonnull align 8 dereferenceable(16) %0, ptr noundef %1) #0 comdat align 2 {
  %3 = alloca ptr, align 8
  %4 = alloca ptr, align 8
  store ptr %0, ptr %3, align 8
  store ptr %1, ptr %4, align 8
  %5 = load ptr, ptr %3, align 8
  %6 = load ptr, ptr %4, align 8
  %7 = getelementptr inbounds nuw %"class.llvm::ilist_detail::node_base_prevnext", ptr %5, i32 0, i32 0
  store ptr %6, ptr %7, align 8
  ret void
}

; Function Attrs: mustprogress nounwind uwtable
define linkonce_odr hidden noundef ptr @_ZNK4llvm12ilist_detail18node_base_prevnextINS_15ilist_node_baseILb0EvEELb0EE7getPrevEv(ptr noundef nonnull align 8 dereferenceable(16) %0) #0 comdat align 2 {
  %2 = alloca ptr, align 8
  store ptr %0, ptr %2, align 8
  %3 = load ptr, ptr %2, align 8
  %4 = getelementptr inbounds nuw %"class.llvm::ilist_detail::node_base_prevnext", ptr %3, i32 0, i32 0
  %5 = load ptr, ptr %4, align 8
  ret ptr %5
}

; Function Attrs: mustprogress nounwind uwtable
define linkonce_odr hidden noundef ptr @_ZNK4llvm12ilist_detail18node_base_prevnextINS_15ilist_node_baseILb0EvEELb0EE7getNextEv(ptr noundef nonnull align 8 dereferenceable(16) %0) #0 comdat align 2 {
  %2 = alloca ptr, align 8
  store ptr %0, ptr %2, align 8
  %3 = load ptr, ptr %2, align 8
  %4 = getelementptr inbounds nuw %"class.llvm::ilist_detail::node_base_prevnext", ptr %3, i32 0, i32 1
  %5 = load ptr, ptr %4, align 8
  ret ptr %5
}

; Function Attrs: mustprogress nounwind uwtable
define linkonce_odr hidden void @_ZN4llvm10ilist_baseILb0EvE10removeImplERNS_15ilist_node_baseILb0EvEE(ptr noundef nonnull align 8 dereferenceable(16) %0) #0 comdat align 2 {
  %2 = alloca ptr, align 8
  %3 = alloca ptr, align 8
  %4 = alloca ptr, align 8
  store ptr %0, ptr %2, align 8
  %5 = load ptr, ptr %2, align 8
  %6 = call noundef ptr @_ZNK4llvm12ilist_detail18node_base_prevnextINS_15ilist_node_baseILb0EvEELb0EE7getPrevEv(ptr noundef nonnull align 8 dereferenceable(16) %5)
  store ptr %6, ptr %3, align 8
  %7 = load ptr, ptr %2, align 8
  %8 = call noundef ptr @_ZNK4llvm12ilist_detail18node_base_prevnextINS_15ilist_node_baseILb0EvEELb0EE7getNextEv(ptr noundef nonnull align 8 dereferenceable(16) %7)
  store ptr %8, ptr %4, align 8
  %9 = load ptr, ptr %4, align 8
  %10 = load ptr, ptr %3, align 8
  call void @_ZN4llvm12ilist_detail18node_base_prevnextINS_15ilist_node_baseILb0EvEELb0EE7setPrevEPS3_(ptr noundef nonnull align 8 dereferenceable(16) %9, ptr noundef %10)
  %11 = load ptr, ptr %3, align 8
  %12 = load ptr, ptr %4, align 8
  call void @_ZN4llvm12ilist_detail18node_base_prevnextINS_15ilist_node_baseILb0EvEELb0EE7setNextEPS3_(ptr noundef nonnull align 8 dereferenceable(16) %11, ptr noundef %12)
  %13 = load ptr, ptr %2, align 8
  call void @_ZN4llvm12ilist_detail18node_base_prevnextINS_15ilist_node_baseILb0EvEELb0EE7setPrevEPS3_(ptr noundef nonnull align 8 dereferenceable(16) %13, ptr noundef null)
  %14 = load ptr, ptr %2, align 8
  call void @_ZN4llvm12ilist_detail18node_base_prevnextINS_15ilist_node_baseILb0EvEELb0EE7setNextEPS3_(ptr noundef nonnull align 8 dereferenceable(16) %14, ptr noundef null)
  ret void
}

; Function Attrs: mustprogress nounwind uwtable
define linkonce_odr hidden noundef ptr @_ZN4llvm12ilist_detail10NodeAccess11getValuePtrINS0_12node_optionsINS_14GlobalVariableELb0ELb0EvLb0EvEEEENT_7pointerEPNS_15ilist_node_implIS6_EE(ptr noundef %0) #0 comdat align 2 {
  %2 = alloca ptr, align 8
  store ptr %0, ptr %2, align 8
  %3 = load ptr, ptr %2, align 8
  %4 = icmp eq ptr %3, null
  br i1 %4, label %7, label %5

5:                                                ; preds = %1
  %6 = getelementptr inbounds i8, ptr %3, i64 -56
  br label %8

7:                                                ; preds = %1
  br label %8

8:                                                ; preds = %7, %5
  %9 = phi ptr [ %6, %5 ], [ null, %7 ]
  ret ptr %9
}

; Function Attrs: mustprogress nounwind uwtable
define linkonce_odr hidden noundef ptr @_ZN4llvm15ilist_node_implINS_12ilist_detail12node_optionsINS_14GlobalVariableELb0ELb0EvLb0EvEEE7getNextEv(ptr noundef nonnull align 8 dereferenceable(16) %0) #0 comdat align 2 {
  %2 = alloca ptr, align 8
  store ptr %0, ptr %2, align 8
  %3 = load ptr, ptr %2, align 8
  %4 = call noundef ptr @_ZNK4llvm12ilist_detail18node_base_prevnextINS_15ilist_node_baseILb0EvEELb0EE7getNextEv(ptr noundef nonnull align 8 dereferenceable(16) %3)
  ret ptr %4
}

; Function Attrs: mustprogress nounwind uwtable
define linkonce_odr hidden void @_ZN4llvm10ilist_baseILb0EvE6removeINS_15ilist_node_implINS_12ilist_detail12node_optionsINS_14GlobalVariableELb0ELb0EvLb0EvEEEEEEvRT_(ptr noundef nonnull align 8 dereferenceable(16) %0) #0 comdat align 2 {
  %2 = alloca ptr, align 8
  store ptr %0, ptr %2, align 8
  %3 = load ptr, ptr %2, align 8
  call void @_ZN4llvm10ilist_baseILb0EvE10removeImplERNS_15ilist_node_baseILb0EvEE(ptr noundef nonnull align 8 dereferenceable(16) %3)
  ret void
}

; Function Attrs: mustprogress nounwind uwtable
define linkonce_odr hidden noundef ptr @_ZN4llvm12ilist_detail18SpecificNodeAccessINS0_12node_optionsINS_14GlobalVariableELb0ELb0EvLb0EvEEE11getValuePtrEPNS_15ilist_node_implIS4_EE(ptr noundef %0) #0 comdat align 2 {
  %2 = alloca ptr, align 8
  store ptr %0, ptr %2, align 8
  %3 = load ptr, ptr %2, align 8
  %4 = call noundef ptr @_ZN4llvm12ilist_detail10NodeAccess11getValuePtrINS0_12node_optionsINS_14GlobalVariableELb0ELb0EvLb0EvEEEENT_7pointerEPNS_15ilist_node_implIS6_EE(ptr noundef %3)
  ret ptr %4
}

; Function Attrs: mustprogress nounwind uwtable
define linkonce_odr hidden noundef nonnull align 8 dereferenceable(8) ptr @_ZN4llvm14ilist_iteratorINS_12ilist_detail12node_optionsINS_14GlobalVariableELb0ELb0EvLb0EvEELb0ELb0EEppEv(ptr noundef nonnull align 8 dereferenceable(8) %0) #0 comdat align 2 {
  %2 = alloca ptr, align 8
  store ptr %0, ptr %2, align 8
  %3 = load ptr, ptr %2, align 8
  %4 = getelementptr inbounds nuw %"class.llvm::ilist_iterator", ptr %3, i32 0, i32 0
  %5 = load ptr, ptr %4, align 8
  %6 = call noundef ptr @_ZN4llvm15ilist_node_implINS_12ilist_detail12node_optionsINS_14GlobalVariableELb0ELb0EvLb0EvEEE7getNextEv(ptr noundef nonnull align 8 dereferenceable(16) %5)
  %7 = getelementptr inbounds nuw %"class.llvm::ilist_iterator", ptr %3, i32 0, i32 0
  store ptr %6, ptr %7, align 8
  ret ptr %3
}

; Function Attrs: mustprogress nounwind uwtable
define linkonce_odr hidden void @_ZN4llvm12simple_ilistINS_14GlobalVariableEJEE6removeERS1_(ptr noundef nonnull align 8 dereferenceable(16) %0, ptr noundef nonnull align 8 dereferenceable(81) %1) #0 comdat align 2 {
  %3 = alloca ptr, align 8
  %4 = alloca ptr, align 8
  store ptr %0, ptr %3, align 8
  store ptr %1, ptr %4, align 8
  %5 = load ptr, ptr %4, align 8
  %6 = call noundef ptr @_ZN4llvm12ilist_detail18SpecificNodeAccessINS0_12node_optionsINS_14GlobalVariableELb0ELb0EvLb0EvEEE10getNodePtrEPS3_(ptr noundef %5)
  call void @_ZN4llvm10ilist_baseILb0EvE6removeINS_15ilist_node_implINS_12ilist_detail12node_optionsINS_14GlobalVariableELb0ELb0EvLb0EvEEEEEEvRT_(ptr noundef nonnull align 8 dereferenceable(16) %6)
  ret void
}

; Function Attrs: mustprogress nounwind uwtable
define linkonce_odr hidden noundef nonnull align 8 dereferenceable(81) ptr @_ZNK4llvm14ilist_iteratorINS_12ilist_detail12node_optionsINS_14GlobalVariableELb0ELb0EvLb0EvEELb0ELb0EEdeEv(ptr noundef nonnull align 8 dereferenceable(8) %0) #0 comdat align 2 {
  %2 = alloca ptr, align 8
  store ptr %0, ptr %2, align 8
  %3 = load ptr, ptr %2, align 8
  %4 = getelementptr inbounds nuw %"class.llvm::ilist_iterator", ptr %3, i32 0, i32 0
  %5 = load ptr, ptr %4, align 8
  %6 = call noundef ptr @_ZN4llvm12ilist_detail18SpecificNodeAccessINS0_12node_optionsINS_14GlobalVariableELb0ELb0EvLb0EvEEE11getValuePtrEPNS_15ilist_node_implIS4_EE(ptr noundef %5)
  ret ptr %6
}

; Function Attrs: mustprogress nounwind uwtable
define linkonce_odr hidden ptr @_ZN4llvm14ilist_iteratorINS_12ilist_detail12node_optionsINS_14GlobalVariableELb0ELb0EvLb0EvEELb0ELb0EEppEi(ptr noundef nonnull align 8 dereferenceable(8) %0, i32 noundef %1) #0 comdat align 2 {
  %3 = alloca %"class.llvm::ilist_iterator", align 8
  %4 = alloca ptr, align 8
  %5 = alloca i32, align 4
  store ptr %0, ptr %4, align 8
  store i32 %1, ptr %5, align 4
  %6 = load ptr, ptr %4, align 8
  call void @llvm.memcpy.p0.p0.i64(ptr align 8 %3, ptr align 8 %6, i64 8, i1 false)
  %7 = call noundef nonnull align 8 dereferenceable(8) ptr @_ZN4llvm14ilist_iteratorINS_12ilist_detail12node_optionsINS_14GlobalVariableELb0ELb0EvLb0EvEELb0ELb0EEppEv(ptr noundef nonnull align 8 dereferenceable(8) %6)
  %8 = getelementptr inbounds nuw %"class.llvm::ilist_iterator", ptr %3, i32 0, i32 0
  %9 = load ptr, ptr %8, align 8
  ret ptr %9
}

; Function Attrs: mustprogress nounwind uwtable
define linkonce_odr hidden noundef ptr @_ZN4llvm12ilist_detail10NodeAccess10getNodePtrINS0_12node_optionsINS_14GlobalVariableELb0ELb0EvLb0EvEEEEPNS_15ilist_node_implIT_EENS7_7pointerE(ptr noundef %0) #0 comdat align 2 {
  %2 = alloca ptr, align 8
  store ptr %0, ptr %2, align 8
  %3 = load ptr, ptr %2, align 8
  %4 = icmp eq ptr %3, null
  br i1 %4, label %7, label %5

5:                                                ; preds = %1
  %6 = getelementptr inbounds i8, ptr %3, i64 56
  br label %7

7:                                                ; preds = %5, %1
  %8 = phi ptr [ %6, %5 ], [ null, %1 ]
  ret ptr %8
}

; Function Attrs: mustprogress nounwind uwtable
define linkonce_odr hidden noundef ptr @_ZN4llvm11iplist_implINS_12simple_ilistINS_14GlobalVariableEJEEENS_21SymbolTableListTraitsIS2_JEEEE6removeERNS_14ilist_iteratorINS_12ilist_detail12node_optionsIS2_Lb0ELb0EvLb0EvEELb0ELb0EEE(ptr noundef nonnull align 8 dereferenceable(16) %0, ptr noundef nonnull align 8 dereferenceable(8) %1) #0 comdat align 2 {
  %3 = alloca ptr, align 8
  %4 = alloca ptr, align 8
  %5 = alloca ptr, align 8
  %6 = alloca %"class.llvm::ilist_iterator", align 8
  store ptr %0, ptr %3, align 8
  store ptr %1, ptr %4, align 8
  %7 = load ptr, ptr %3, align 8
  %8 = load ptr, ptr %4, align 8
  %9 = call ptr @_ZN4llvm14ilist_iteratorINS_12ilist_detail12node_optionsINS_14GlobalVariableELb0ELb0EvLb0EvEELb0ELb0EEppEi(ptr noundef nonnull align 8 dereferenceable(8) %8, i32 noundef 0)
  %10 = getelementptr inbounds nuw %"class.llvm::ilist_iterator", ptr %6, i32 0, i32 0
  store ptr %9, ptr %10, align 8
  %11 = call noundef nonnull align 8 dereferenceable(81) ptr @_ZNK4llvm14ilist_iteratorINS_12ilist_detail12node_optionsINS_14GlobalVariableELb0ELb0EvLb0EvEELb0ELb0EEdeEv(ptr noundef nonnull align 8 dereferenceable(8) %6)
  store ptr %11, ptr %5, align 8
  %12 = load ptr, ptr %5, align 8
  call void @_ZN4llvm21SymbolTableListTraitsINS_14GlobalVariableEJEE18removeNodeFromListEPS1_(ptr noundef nonnull align 1 dereferenceable(1) %7, ptr noundef %12)
  %13 = load ptr, ptr %5, align 8
  call void @_ZN4llvm12simple_ilistINS_14GlobalVariableEJEE6removeERS1_(ptr noundef nonnull align 8 dereferenceable(16) %7, ptr noundef nonnull align 8 dereferenceable(81) %13)
  %14 = load ptr, ptr %5, align 8
  ret ptr %14
}

; Function Attrs: mustprogress nounwind uwtable
define linkonce_odr hidden noundef ptr @_ZN4llvm12ilist_detail18SpecificNodeAccessINS0_12node_optionsINS_14GlobalVariableELb0ELb0EvLb0EvEEE10getNodePtrEPS3_(ptr noundef %0) #0 comdat align 2 {
  %2 = alloca ptr, align 8
  store ptr %0, ptr %2, align 8
  %3 = load ptr, ptr %2, align 8
  %4 = call noundef ptr @_ZN4llvm12ilist_detail10NodeAccess10getNodePtrINS0_12node_optionsINS_14GlobalVariableELb0ELb0EvLb0EvEEEEPNS_15ilist_node_implIT_EENS7_7pointerE(ptr noundef %3)
  ret ptr %4
}

; Function Attrs: mustprogress nounwind uwtable
define linkonce_odr hidden noundef ptr @_ZN4llvm11iplist_implINS_12simple_ilistINS_14GlobalVariableEJEEENS_21SymbolTableListTraitsIS2_JEEEE6removeERKNS_14ilist_iteratorINS_12ilist_detail12node_optionsIS2_Lb0ELb0EvLb0EvEELb0ELb0EEE(ptr noundef nonnull align 8 dereferenceable(16) %0, ptr noundef nonnull align 8 dereferenceable(8) %1) #0 comdat align 2 {
  %3 = alloca ptr, align 8
  %4 = alloca ptr, align 8
  %5 = alloca %"class.llvm::ilist_iterator", align 8
  store ptr %0, ptr %3, align 8
  store ptr %1, ptr %4, align 8
  %6 = load ptr, ptr %3, align 8
  %7 = load ptr, ptr %4, align 8
  call void @llvm.memcpy.p0.p0.i64(ptr align 8 %5, ptr align 8 %7, i64 8, i1 false)
  %8 = call noundef ptr @_ZN4llvm11iplist_implINS_12simple_ilistINS_14GlobalVariableEJEEENS_21SymbolTableListTraitsIS2_JEEEE6removeERNS_14ilist_iteratorINS_12ilist_detail12node_optionsIS2_Lb0ELb0EvLb0EvEELb0ELb0EEE(ptr noundef nonnull align 8 dereferenceable(16) %6, ptr noundef nonnull align 8 dereferenceable(8) %5)
  ret ptr %8
}

; Function Attrs: mustprogress nounwind uwtable
define linkonce_odr hidden void @_ZN4llvm14ilist_iteratorINS_12ilist_detail12node_optionsINS_14GlobalVariableELb0ELb0EvLb0EvEELb0ELb0EEC2EPS3_(ptr noundef nonnull align 8 dereferenceable(8) %0, ptr noundef %1) unnamed_addr #0 comdat align 2 {
  %3 = alloca ptr, align 8
  %4 = alloca ptr, align 8
  store ptr %0, ptr %3, align 8
  store ptr %1, ptr %4, align 8
  %5 = load ptr, ptr %3, align 8
  %6 = getelementptr inbounds nuw %"class.llvm::ilist_iterator", ptr %5, i32 0, i32 0
  %7 = load ptr, ptr %4, align 8
  %8 = call noundef ptr @_ZN4llvm12ilist_detail18SpecificNodeAccessINS0_12node_optionsINS_14GlobalVariableELb0ELb0EvLb0EvEEE10getNodePtrEPS3_(ptr noundef %7)
  store ptr %8, ptr %6, align 8
  ret void
}

; Function Attrs: mustprogress nounwind uwtable
define linkonce_odr hidden noundef ptr @_ZN4llvm11iplist_implINS_12simple_ilistINS_14GlobalVariableEJEEENS_21SymbolTableListTraitsIS2_JEEEE6removeEPS2_(ptr noundef nonnull align 8 dereferenceable(16) %0, ptr noundef %1) #0 comdat align 2 {
  %3 = alloca ptr, align 8
  %4 = alloca ptr, align 8
  %5 = alloca %"class.llvm::ilist_iterator", align 8
  store ptr %0, ptr %3, align 8
  store ptr %1, ptr %4, align 8
  %6 = load ptr, ptr %3, align 8
  %7 = load ptr, ptr %4, align 8
  call void @_ZN4llvm14ilist_iteratorINS_12ilist_detail12node_optionsINS_14GlobalVariableELb0ELb0EvLb0EvEELb0ELb0EEC2EPS3_(ptr noundef nonnull align 8 dereferenceable(8) %5, ptr noundef %7)
  %8 = call noundef ptr @_ZN4llvm11iplist_implINS_12simple_ilistINS_14GlobalVariableEJEEENS_21SymbolTableListTraitsIS2_JEEEE6removeERKNS_14ilist_iteratorINS_12ilist_detail12node_optionsIS2_Lb0ELb0EvLb0EvEELb0ELb0EEE(ptr noundef nonnull align 8 dereferenceable(16) %6, ptr noundef nonnull align 8 dereferenceable(8) %5)
  ret ptr %8
}

; Function Attrs: mustprogress nounwind uwtable
define linkonce_odr hidden void @_ZN4llvm6Module20removeGlobalVariableEPNS_14GlobalVariableE(ptr noundef nonnull align 8 dereferenceable(857) %0, ptr noundef %1) #0 comdat align 2 {
  %3 = alloca ptr, align 8
  %4 = alloca ptr, align 8
  store ptr %0, ptr %3, align 8
  store ptr %1, ptr %4, align 8
  %5 = load ptr, ptr %3, align 8
  %6 = getelementptr inbounds nuw %"class.llvm::Module", ptr %5, i32 0, i32 1
  %7 = load ptr, ptr %4, align 8
  %8 = call noundef ptr @_ZN4llvm11iplist_implINS_12simple_ilistINS_14GlobalVariableEJEEENS_21SymbolTableListTraitsIS2_JEEEE6removeEPS2_(ptr noundef nonnull align 8 dereferenceable(16) %6, ptr noundef %7)
  ret void
}

; Function Attrs: mustprogress nounwind uwtable
define linkonce_odr hidden noundef ptr @_ZN4llvm11GlobalValue9getParentEv(ptr noundef nonnull align 8 dereferenceable(48) %0) #0 comdat align 2 {
  %2 = alloca ptr, align 8
  store ptr %0, ptr %2, align 8
  %3 = load ptr, ptr %2, align 8
  %4 = getelementptr inbounds nuw %"class.llvm::GlobalValue", ptr %3, i32 0, i32 4
  %5 = load ptr, ptr %4, align 8
  ret ptr %5
}

; Function Attrs: mustprogress nounwind uwtable
define dso_local void @_ZN4llvm14GlobalVariable16removeFromParentEv(ptr noundef nonnull align 8 dereferenceable(81) %0) #0 align 2 {
  %2 = alloca ptr, align 8
  store ptr %0, ptr %2, align 8
  %3 = load ptr, ptr %2, align 8
  %4 = call noundef ptr @_ZN4llvm11GlobalValue9getParentEv(ptr noundef nonnull align 8 dereferenceable(48) %3)
  call void @_ZN4llvm6Module20removeGlobalVariableEPNS_14GlobalVariableE(ptr noundef nonnull align 8 dereferenceable(857) %4, ptr noundef %3)
  ret void
}