; Function Attrs: mustprogress nounwind uwtable
define dso_local void @_ZN4llvm14GlobalVariable16removeFromParentEv(ptr noundef nonnull align 8 dereferenceable(81) %0) local_unnamed_addr #1 align 2 {
  %2 = getelementptr inbounds nuw i8, ptr %0, i64 40
  %3 = load ptr, ptr %2, align 8
  %4 = getelementptr inbounds nuw i8, ptr %3, i64 8
  tail call void @_ZN4llvm21SymbolTableListTraitsINS_14GlobalVariableEJEE18removeNodeFromListEPS1_(ptr noundef nonnull align 1 dereferenceable(1) %4, ptr noundef nonnull %0) #12
  %5 = getelementptr inbounds i8, ptr %0, i64 56
  %6 = load ptr, ptr %5, align 8
  %7 = getelementptr inbounds i8, ptr %0, i64 64
  %8 = load ptr, ptr %7, align 8
  store ptr %6, ptr %8, align 8
  %9 = getelementptr inbounds nuw i8, ptr %6, i64 8
  store ptr %8, ptr %9, align 8
  tail call void @llvm.memset.p0.i64(ptr noundef nonnull align 8 dereferenceable(16) %5, i8 0, i64 16, i1 false)
  ret void
}